; Function Attrs: mustprogress uwtable
define hidden void @_ZN4lean2ir10add_externERKNS_16elab_environmentERKNS_4nameE(ptr dead_on_unwind noalias writable sret(%"class.lean::elab_environment") align 8 %0, ptr noundef nonnull align 8 dereferenceable(8) %1, ptr noundef nonnull align 8 dereferenceable(8) %2) local_unnamed_addr #0 personality ptr @__gxx_personality_v0 {
  %4 = alloca %"class.lean::object_ref", align 8
  %5 = alloca %"class.lean::to_ir_fn", align 8
  %6 = alloca %"class.lean::elab_environment", align 8
  call void @llvm.lifetime.start.p0(i64 8, ptr nonnull %4) #22
  call void @llvm.lifetime.start.p0(i64 424, ptr nonnull %5) #22
  call void @_ZN4lean8to_ir_fnC2ERKNS_16elab_environmentE(ptr noundef nonnull align 8 dereferenceable(420) %5, ptr noundef nonnull align 8 dereferenceable(8) %1)
  invoke void @_ZN4lean8to_ir_fnclERKNS_4nameE(ptr dead_on_unwind nonnull writable sret(%"class.lean::object_ref") align 8 %4, ptr noundef nonnull align 8 dereferenceable(420) %5, ptr noundef nonnull align 8 dereferenceable(8) %2)
          to label %7 unwind label %56

7:                                                ; preds = %3
  call void @_ZN4lean8to_ir_fnD2Ev(ptr noundef nonnull align 8 dereferenceable(420) %5) #22
  call void @llvm.lifetime.end.p0(i64 424, ptr nonnull %5) #22
  call void @llvm.lifetime.start.p0(i64 8, ptr nonnull %6) #22
  call void @llvm.experimental.noalias.scope.decl(metadata !69)
  %8 = load ptr, ptr %1, align 8, !tbaa !3, !noalias !69
  %9 = ptrtoint ptr %8 to i64
  %10 = and i64 %9, 1
  %.not.i.i.i = icmp eq i64 %10, 0
  br i1 %.not.i.i.i, label %11, label %_ZNK4lean10object_ref10to_obj_argEv.exit.i

11:                                               ; preds = %7
  %.val.i.i.i.i = load i32, ptr %8, align 4, !tbaa !8, !noalias !69
  %12 = icmp sgt i32 %.val.i.i.i.i, 0
  br i1 %12, label %13, label %15, !prof !11

13:                                               ; preds = %11
  %14 = add nuw nsw i32 %.val.i.i.i.i, 1
  store i32 %14, ptr %8, align 4, !tbaa !8, !noalias !69
  br label %_ZNK4lean10object_ref10to_obj_argEv.exit.i

15:                                               ; preds = %11
  %.not.i.i.i.i = icmp eq i32 %.val.i.i.i.i, 0
  br i1 %.not.i.i.i.i, label %_ZNK4lean10object_ref10to_obj_argEv.exit.i, label %16

16:                                               ; preds = %15
  invoke void @lean_inc_ref_cold(ptr noundef nonnull %8)
          to label %.noexc unwind label %58

.noexc:                                           ; preds = %16
  %.pre.i.i = load ptr, ptr %1, align 8, !tbaa !3, !noalias !69
  br label %_ZNK4lean10object_ref10to_obj_argEv.exit.i

_ZNK4lean10object_ref10to_obj_argEv.exit.i:       ; preds = %.noexc, %15, %13, %7
  %17 = phi ptr [ %8, %7 ], [ %8, %13 ], [ %8, %15 ], [ %.pre.i.i, %.noexc ]
  %18 = load ptr, ptr %4, align 8, !tbaa !3, !noalias !69
  %19 = ptrtoint ptr %18 to i64
  %20 = and i64 %19, 1
  %.not.i.i2.i = icmp eq i64 %20, 0
  br i1 %.not.i.i2.i, label %21, label %_ZNK4lean10object_ref10to_obj_argEv.exit6.i

21:                                               ; preds = %_ZNK4lean10object_ref10to_obj_argEv.exit.i
  %.val.i.i.i3.i = load i32, ptr %18, align 4, !tbaa !8, !noalias !69
  %22 = icmp sgt i32 %.val.i.i.i3.i, 0
  br i1 %22, label %23, label %25, !prof !11

23:                                               ; preds = %21
  %24 = add nuw nsw i32 %.val.i.i.i3.i, 1
  store i32 %24, ptr %18, align 4, !tbaa !8, !noalias !69
  br label %_ZNK4lean10object_ref10to_obj_argEv.exit6.i

25:                                               ; preds = %21
  %.not.i.i.i4.i = icmp eq i32 %.val.i.i.i3.i, 0
  br i1 %.not.i.i.i4.i, label %_ZNK4lean10object_ref10to_obj_argEv.exit6.i, label %26

26:                                               ; preds = %25
  invoke void @lean_inc_ref_cold(ptr noundef nonnull %18)
          to label %.noexc8 unwind label %58

.noexc8:                                          ; preds = %26
  %.pre.i5.i = load ptr, ptr %4, align 8, !tbaa !3, !noalias !69
  br label %_ZNK4lean10object_ref10to_obj_argEv.exit6.i

_ZNK4lean10object_ref10to_obj_argEv.exit6.i:      ; preds = %.noexc8, %25, %23, %_ZNK4lean10object_ref10to_obj_argEv.exit.i
  %27 = phi ptr [ %18, %_ZNK4lean10object_ref10to_obj_argEv.exit.i ], [ %18, %23 ], [ %18, %25 ], [ %.pre.i5.i, %.noexc8 ]
  %28 = invoke ptr @lean_ir_add_decl(ptr noundef %17, ptr noundef %27)
          to label %29 unwind label %58

29:                                               ; preds = %_ZNK4lean10object_ref10to_obj_argEv.exit6.i
  store ptr %28, ptr %6, align 8, !tbaa !3, !alias.scope !69
  invoke void @_ZN4lean2ir17add_boxed_versionERKNS_16elab_environmentERKNS_10object_refE(ptr dead_on_unwind writable sret(%"class.lean::elab_environment") align 8 %0, ptr noundef nonnull align 8 dereferenceable(8) %6, ptr noundef nonnull align 8 dereferenceable(8) %4)
          to label %30 unwind label %60

30:                                               ; preds = %29
  %31 = ptrtoint ptr %28 to i64
  %32 = and i64 %31, 1
  %.not.i.i = icmp eq i64 %32, 0
  br i1 %.not.i.i, label %33, label %_ZN4lean10object_refD2Ev.exit

33:                                               ; preds = %30
  %34 = load i32, ptr %28, align 4, !tbaa !8
  %35 = icmp sgt i32 %34, 1
  br i1 %35, label %36, label %38, !prof !11

36:                                               ; preds = %33
  %37 = add nsw i32 %34, -1
  store i32 %37, ptr %28, align 4, !tbaa !8
  br label %_ZN4lean10object_refD2Ev.exit

38:                                               ; preds = %33
  %.not.i.i.i10 = icmp eq i32 %34, 0
  br i1 %.not.i.i.i10, label %_ZN4lean10object_refD2Ev.exit, label %39

39:                                               ; preds = %38
  invoke void @lean_dec_ref_cold(ptr noundef nonnull %28)
          to label %_ZN4lean10object_refD2Ev.exit unwind label %40

40:                                               ; preds = %39
  %41 = landingpad { ptr, i32 }
          catch ptr null
  %42 = extractvalue { ptr, i32 } %41, 0
  call void @__clang_call_terminate(ptr %42) #23
  unreachable

_ZN4lean10object_refD2Ev.exit:                    ; preds = %30, %36, %38, %39
  call void @llvm.lifetime.end.p0(i64 8, ptr nonnull %6) #22
  %43 = load ptr, ptr %4, align 8, !tbaa !3
  %44 = ptrtoint ptr %43 to i64
  %45 = and i64 %44, 1
  %.not.i.i11 = icmp eq i64 %45, 0
  br i1 %.not.i.i11, label %46, label %_ZN4lean10object_refD2Ev.exit13

46:                                               ; preds = %_ZN4lean10object_refD2Ev.exit
  %47 = load i32, ptr %43, align 4, !tbaa !8
  %48 = icmp sgt i32 %47, 1
  br i1 %48, label %49, label %51, !prof !11

49:                                               ; preds = %46
  %50 = add nsw i32 %47, -1
  store i32 %50, ptr %43, align 4, !tbaa !8
  br label %_ZN4lean10object_refD2Ev.exit13

51:                                               ; preds = %46
  %.not.i.i.i12 = icmp eq i32 %47, 0
  br i1 %.not.i.i.i12, label %_ZN4lean10object_refD2Ev.exit13, label %52

52:                                               ; preds = %51
  invoke void @lean_dec_ref_cold(ptr noundef nonnull %43)
          to label %_ZN4lean10object_refD2Ev.exit13 unwind label %53

53:                                               ; preds = %52
  %54 = landingpad { ptr, i32 }
          catch ptr null
  %55 = extractvalue { ptr, i32 } %54, 0
  call void @__clang_call_terminate(ptr %55) #23
  unreachable

_ZN4lean10object_refD2Ev.exit13:                  ; preds = %_ZN4lean10object_refD2Ev.exit, %49, %51, %52
  call void @llvm.lifetime.end.p0(i64 8, ptr nonnull %4) #22
  ret void

56:                                               ; preds = %3
  %57 = landingpad { ptr, i32 }
          cleanup
  call void @_ZN4lean8to_ir_fnD2Ev(ptr noundef nonnull align 8 dereferenceable(420) %5) #22
  call void @llvm.lifetime.end.p0(i64 424, ptr nonnull %5) #22
  br label %63

58:                                               ; preds = %_ZNK4lean10object_ref10to_obj_argEv.exit6.i, %26, %16
  %59 = landingpad { ptr, i32 }
          cleanup
  br label %62

60:                                               ; preds = %29
  %61 = landingpad { ptr, i32 }
          cleanup
  call void @_ZN4lean10object_refD2Ev(ptr noundef nonnull align 8 dereferenceable(8) %6) #22
  br label %62

62:                                               ; preds = %60, %58
  %.pn = phi { ptr, i32 } [ %61, %60 ], [ %59, %58 ]
  call void @llvm.lifetime.end.p0(i64 8, ptr nonnull %6) #22
  call void @_ZN4lean10object_refD2Ev(ptr noundef nonnull align 8 dereferenceable(8) %4) #22
  br label %63

63:                                               ; preds = %62, %56
  %.pn.pn = phi { ptr, i32 } [ %.pn, %62 ], [ %57, %56 ]
  call void @llvm.lifetime.end.p0(i64 8, ptr nonnull %4) #22
  resume { ptr, i32 } %.pn.pn
}